target datalayout = "e-m:e-p270:32:32-p271:32:32-p272:64:64-i64:64-i128:128-f80:128-n8:16:32:64-S128"
target triple = "x86_64-unknown-linux-gnu"

%class.btMatrix3x3 = type { [3 x %class.btVector3] }
%class.btVector3 = type { [4 x float] }
%class.btDeformableContactConstraint = type { ptr, i8, ptr, %class.btVector3 }
%"struct.btSoftBody::Node" = type <{ %"struct.btSoftBody::Feature", %class.btVector3, %class.btVector3, %class.btVector3, %class.btVector3, %class.btVector3, %class.btVector3, float, float, ptr, i32, i8, [3 x i8], i32, %class.btVector3, %class.btMatrix3x3, %class.btMatrix3x3, [4 x i8] }>
%"struct.btSoftBody::Feature" = type { %"struct.btSoftBody::Element", ptr }
%"struct.btSoftBody::Element" = type { ptr }
%class.btDeformableRigidContactConstraint = type { %class.btDeformableContactConstraint, %class.btVector3, %class.btVector3, float, float, i8, ptr }
%class.btReducedDeformableNodeRigidContactConstraint = type { %class.btReducedDeformableRigidContactConstraint.base, ptr }
%class.btReducedDeformableRigidContactConstraint.base = type <{ %class.btDeformableRigidContactConstraint, i8, i8, [2 x i8], i32, i32, [4 x i8], ptr, ptr, float, float, float, float, float, float, float, float, float, float, float, float, float, float, float, float, float, %class.btVector3, %class.btVector3, %class.btVector3, %class.btVector3, %class.btVector3, %class.btVector3, %class.btMatrix3x3, %class.btVector3, %class.btVector3, %class.btVector3, %class.btVector3, %class.btVector3, %class.btVector3 }>

; Function Attrs: mustprogress nounwind uwtable
define dso_local { <2 x float>, <2 x float> } @_ZNK45btReducedDeformableNodeRigidContactConstraint5getVbEv(ptr noundef nonnull align 8 dereferenceable(448) %this) unnamed_addr #1 align 2 {
entry:
  %retval = alloca %class.btVector3, align 4
  %this.addr = alloca ptr, align 8
  store ptr %this, ptr %this.addr, align 8
  %this1 = load ptr, ptr %this.addr, align 8
  %m_node = getelementptr inbounds %class.btReducedDeformableNodeRigidContactConstraint, ptr %this1, i32 0, i32 1
  %0 = load ptr, ptr %m_node, align 8
  %m_v = getelementptr inbounds %"struct.btSoftBody::Node", ptr %0, i32 0, i32 3
  call void @llvm.memcpy.p0.p0.i64(ptr align 4 %retval, ptr align 8 %m_v, i64 16, i1 false)
  %coerce.dive = getelementptr inbounds %class.btVector3, ptr %retval, i32 0, i32 0
  %1 = load { <2 x float>, <2 x float> }, ptr %coerce.dive, align 4
  ret { <2 x float>, <2 x float> } %1
}